target datalayout = "e-m:e-p270:32:32-p271:32:32-p272:64:64-i64:64-i128:128-f80:128-n8:16:32:64-S128"
target triple = "x86_64-pc-linux-gnu"

@.str.5 = private unnamed_addr constant [6 x i8] c"FILE*\00", align 1
@.str.18 = private unnamed_addr constant [7 x i8] c"%s: %s\00", align 1
@.str.19 = private unnamed_addr constant [3 x i8] c"%s\00", align 1

; Function Attrs: nounwind uwtable
define internal i32 @pushresult(ptr noundef %0, i32 noundef %1, ptr noundef %2) #0 {
  %4 = alloca i32, align 4
  %5 = alloca ptr, align 8
  %6 = alloca i32, align 4
  %7 = alloca ptr, align 8
  %8 = alloca i32, align 4
  %9 = alloca i32, align 4
  store ptr %0, ptr %5, align 8, !tbaa !4
  store i32 %1, ptr %6, align 4, !tbaa !14
  store ptr %2, ptr %7, align 8, !tbaa !16
  call void @llvm.lifetime.start.p0(i64 4, ptr %8) #6
  %10 = call ptr @__errno_location() #7
  %11 = load i32, ptr %10, align 4, !tbaa !14
  store i32 %11, ptr %8, align 4, !tbaa !14
  %12 = load i32, ptr %6, align 4, !tbaa !14
  %13 = icmp ne i32 %12, 0
  br i1 %13, label %14, label %16

14:                                               ; preds = %3
  %15 = load ptr, ptr %5, align 8, !tbaa !4
  call void @lua_pushboolean(ptr noundef %15, i32 noundef 1)
  store i32 1, ptr %4, align 4
  store i32 1, ptr %9, align 4
  br label %35

16:                                               ; preds = %3
  %17 = load ptr, ptr %5, align 8, !tbaa !4
  call void @lua_pushnil(ptr noundef %17)
  %18 = load ptr, ptr %7, align 8, !tbaa !16
  %19 = icmp ne ptr %18, null
  br i1 %19, label %20, label %26

20:                                               ; preds = %16
  %21 = load ptr, ptr %5, align 8, !tbaa !4
  %22 = load ptr, ptr %7, align 8, !tbaa !16
  %23 = load i32, ptr %8, align 4, !tbaa !14
  %24 = call ptr @strerror(i32 noundef %23) #6
  %25 = call ptr (ptr, ptr, ...) @lua_pushfstring(ptr noundef %21, ptr noundef @.str.18, ptr noundef %22, ptr noundef %24)
  br label %31

26:                                               ; preds = %16
  %27 = load ptr, ptr %5, align 8, !tbaa !4
  %28 = load i32, ptr %8, align 4, !tbaa !14
  %29 = call ptr @strerror(i32 noundef %28) #6
  %30 = call ptr (ptr, ptr, ...) @lua_pushfstring(ptr noundef %27, ptr noundef @.str.19, ptr noundef %29)
  br label %31

31:                                               ; preds = %26, %20
  %32 = load ptr, ptr %5, align 8, !tbaa !4
  %33 = load i32, ptr %8, align 4, !tbaa !14
  %34 = sext i32 %33 to i64
  call void @lua_pushinteger(ptr noundef %32, i64 noundef %34)
  store i32 3, ptr %4, align 4
  store i32 1, ptr %9, align 4
  br label %35

35:                                               ; preds = %31, %14
  call void @llvm.lifetime.end.p0(i64 4, ptr %8) #6
  %36 = load i32, ptr %4, align 4
  ret i32 %36
}

; Function Attrs: nounwind uwtable
define internal i32 @io_fclose(ptr noundef %0) #0 {
  %2 = alloca ptr, align 8
  %3 = alloca ptr, align 8
  %4 = alloca i32, align 4
  store ptr %0, ptr %2, align 8, !tbaa !4
  call void @llvm.lifetime.start.p0(i64 8, ptr %3) #6
  %5 = load ptr, ptr %2, align 8, !tbaa !4
  %6 = call ptr @luaL_checkudata(ptr noundef %5, i32 noundef 1, ptr noundef @.str.5)
  store ptr %6, ptr %3, align 8, !tbaa !12
  call void @llvm.lifetime.start.p0(i64 4, ptr %4) #6
  %7 = load ptr, ptr %3, align 8, !tbaa !12
  %8 = load ptr, ptr %7, align 8, !tbaa !9
  %9 = call i32 @fclose(ptr noundef %8)
  %10 = icmp eq i32 %9, 0
  %11 = zext i1 %10 to i32
  store i32 %11, ptr %4, align 4, !tbaa !14
  %12 = load ptr, ptr %3, align 8, !tbaa !12
  store ptr null, ptr %12, align 8, !tbaa !9
  %13 = load ptr, ptr %2, align 8, !tbaa !4
  %14 = load i32, ptr %4, align 4, !tbaa !14
  %15 = call i32 @pushresult(ptr noundef %13, i32 noundef %14, ptr noundef null)
  call void @llvm.lifetime.end.p0(i64 4, ptr %4) #6
  call void @llvm.lifetime.end.p0(i64 8, ptr %3) #6
  ret i32 %15
}