; Function Attrs: nounwind uwtable
define internal range(i32 1, 4) i32 @io_fclose(ptr noundef %0) #0 {
  %2 = tail call ptr @luaL_checkudata(ptr noundef %0, i32 noundef 1, ptr noundef nonnull @.str.5) #9
  %3 = load ptr, ptr %2, align 8, !tbaa !4
  %4 = tail call i32 @fclose(ptr noundef %3)
  %.not = icmp eq i32 %4, 0
  store ptr null, ptr %2, align 8, !tbaa !4
  br i1 %.not, label %5, label %6

5:                                                ; preds = %1
  tail call void @lua_pushboolean(ptr noundef %0, i32 noundef 1) #9
  br label %pushresult.exit

6:                                                ; preds = %1
  %7 = tail call ptr @__errno_location() #10
  %8 = load i32, ptr %7, align 4, !tbaa !9
  tail call void @lua_pushnil(ptr noundef %0) #9
  %9 = tail call ptr @strerror(i32 noundef %8) #9
  %10 = tail call ptr (ptr, ptr, ...) @lua_pushfstring(ptr noundef %0, ptr noundef nonnull @.str.19, ptr noundef %9) #9
  %11 = sext i32 %8 to i64
  tail call void @lua_pushinteger(ptr noundef %0, i64 noundef %11) #9
  br label %pushresult.exit

pushresult.exit:                                  ; preds = %5, %6
  %.0.i = phi i32 [ 1, %5 ], [ 3, %6 ]
  ret i32 %.0.i
}